; Function Attrs: nounwind uwtable
define i32 @ffurl_handshake(ptr noundef %0) local_unnamed_addr #3 {
  %2 = getelementptr inbounds nuw i8, ptr %0, i64 8
  %3 = load ptr, ptr %2, align 8, !tbaa !21
  %4 = getelementptr inbounds nuw i8, ptr %3, i64 32
  %5 = load ptr, ptr %4, align 8, !tbaa !62
  %.not = icmp eq ptr %5, null
  br i1 %.not, label %8, label %6

6:                                                ; preds = %1
  %7 = tail call i32 %5(ptr noundef nonnull %0) #12
  %.not8 = icmp eq i32 %7, 0
  br i1 %.not8, label %8, label %10

8:                                                ; preds = %6, %1
  %9 = getelementptr inbounds nuw i8, ptr %0, i64 44
  store i32 1, ptr %9, align 4, !tbaa !38
  br label %10

10:                                               ; preds = %6, %8
  %.0 = phi i32 [ 0, %8 ], [ %7, %6 ]
  ret i32 %.0
}